target datalayout = "e-m:e-p270:32:32-p271:32:32-p272:64:64-i64:64-i128:128-f80:128-n8:16:32:64-S128"
target triple = "x86_64-pc-linux-gnu"

%struct.SDL_WaylandUserdata = type { i32, ptr }
%struct.SDL_WaylandPrimarySelectionSource = type { ptr, ptr, ptr, ptr, %struct.SDL_WaylandUserdata }

; Function Attrs: nounwind uwtable
define hidden void @Wayland_primary_selection_source_set_callback(ptr noundef %0, ptr noundef %1, ptr noundef %2) #0 {
  %4 = alloca ptr, align 8
  %5 = alloca ptr, align 8
  %6 = alloca ptr, align 8
  store ptr %0, ptr %4, align 8
  store ptr %1, ptr %5, align 8
  store ptr %2, ptr %6, align 8
  %7 = load ptr, ptr %4, align 8
  %8 = icmp ne ptr %7, null
  br i1 %8, label %9, label %20

9:                                                ; preds = %3
  %10 = load ptr, ptr %5, align 8
  %11 = load ptr, ptr %4, align 8
  %12 = getelementptr inbounds nuw %struct.SDL_WaylandPrimarySelectionSource, ptr %11, i32 0, i32 3
  store ptr %10, ptr %12, align 8
  %13 = load ptr, ptr %4, align 8
  %14 = getelementptr inbounds nuw %struct.SDL_WaylandPrimarySelectionSource, ptr %13, i32 0, i32 4
  %15 = getelementptr inbounds nuw %struct.SDL_WaylandUserdata, ptr %14, i32 0, i32 0
  store i32 0, ptr %15, align 8
  %16 = load ptr, ptr %6, align 8
  %17 = load ptr, ptr %4, align 8
  %18 = getelementptr inbounds nuw %struct.SDL_WaylandPrimarySelectionSource, ptr %17, i32 0, i32 4
  %19 = getelementptr inbounds nuw %struct.SDL_WaylandUserdata, ptr %18, i32 0, i32 1
  store ptr %16, ptr %19, align 8
  br label %20

20:                                               ; preds = %9, %3
  ret void
}