; Function Attrs: mustprogress nofree norecurse nosync nounwind willreturn memory(argmem: write) uwtable
define hidden void @Wayland_primary_selection_source_set_callback(ptr noundef writeonly captures(address_is_null) %0, ptr noundef %1, ptr noundef %2) local_unnamed_addr #3 {
  %.not = icmp eq ptr %0, null
  br i1 %.not, label %8, label %4

4:                                                ; preds = %3
  %5 = getelementptr inbounds nuw i8, ptr %0, i64 24
  store ptr %1, ptr %5, align 8
  %6 = getelementptr inbounds nuw i8, ptr %0, i64 32
  store i32 0, ptr %6, align 8
  %7 = getelementptr inbounds nuw i8, ptr %0, i64 40
  store ptr %2, ptr %7, align 8
  br label %8

8:                                                ; preds = %4, %3
  ret void
}